target datalayout = "e-m:e-p270:32:32-p271:32:32-p272:64:64-i64:64-i128:128-f80:128-n8:16:32:64-S128"
target triple = "x86_64-pc-linux-gnu"

%class.GLibPoller = type { %class.QThread, %class.QMutex, %class.QWaitCondition, ptr, i32, ptr, i32, i32 }
%class.QThread = type { %class.QObject }
%class.QObject = type { ptr, %class.QScopedPointer }
%class.QScopedPointer = type { ptr }
%class.QMutex = type { %class.QBasicMutex }
%class.QBasicMutex = type { %class.QBasicAtomicPointer }
%class.QBasicAtomicPointer = type { %"struct.std::atomic" }
%"struct.std::atomic" = type { %"struct.std::__atomic_base" }
%"struct.std::__atomic_base" = type { ptr }
%class.QWaitCondition = type { ptr }

; Function Attrs: mustprogress nounwind null_pointer_is_valid sspstrong uwtable
define linkonce_odr void @_ZNSt13__atomic_baseIP13QMutexPrivateEC2ES1_(ptr noundef align 8 dereferenceable_or_null(8) %0, ptr noundef %1) unnamed_addr #8 comdat align 2 {
  %3 = alloca ptr, align 8
  %4 = alloca ptr, align 8
  store ptr %0, ptr %3, align 8
  store ptr %1, ptr %4, align 8
  %5 = load ptr, ptr %3, align 8
  %6 = getelementptr inbounds nuw %"struct.std::__atomic_base", ptr %5, i32 0, i32 0
  %7 = load ptr, ptr %4, align 8
  store ptr %7, ptr %6, align 8
  ret void
}

; Function Attrs: mustprogress nounwind null_pointer_is_valid sspstrong uwtable
define linkonce_odr void @_ZNSt6atomicIP13QMutexPrivateEC2ES1_(ptr noundef align 8 dereferenceable_or_null(8) %0, ptr noundef %1) unnamed_addr #8 comdat align 2 {
  %3 = alloca ptr, align 8
  %4 = alloca ptr, align 8
  store ptr %0, ptr %3, align 8
  store ptr %1, ptr %4, align 8
  %5 = load ptr, ptr %3, align 8
  %6 = getelementptr inbounds nuw %"struct.std::atomic", ptr %5, i32 0, i32 0
  %7 = load ptr, ptr %4, align 8
  call void @_ZNSt13__atomic_baseIP13QMutexPrivateEC2ES1_(ptr noundef align 8 dereferenceable_or_null(8) %6, ptr noundef %7) #19
  ret void
}

; Function Attrs: mustprogress nounwind null_pointer_is_valid sspstrong uwtable
define linkonce_odr void @_ZN19QBasicAtomicPointerI13QMutexPrivateEC2EPS0_(ptr noundef align 8 dereferenceable_or_null(8) %0, ptr noundef %1) unnamed_addr #8 comdat align 2 {
  %3 = alloca ptr, align 8
  %4 = alloca ptr, align 8
  store ptr %0, ptr %3, align 8
  store ptr %1, ptr %4, align 8
  %5 = load ptr, ptr %3, align 8
  %6 = getelementptr inbounds nuw %class.QBasicAtomicPointer, ptr %5, i32 0, i32 0
  %7 = load ptr, ptr %4, align 8
  call void @_ZNSt6atomicIP13QMutexPrivateEC2ES1_(ptr noundef align 8 dereferenceable_or_null(8) %6, ptr noundef %7) #19
  ret void
}

; Function Attrs: mustprogress nounwind null_pointer_is_valid sspstrong uwtable
define linkonce_odr void @_ZN11QBasicMutexC2Ev(ptr noundef align 8 dereferenceable_or_null(8) %0) unnamed_addr #8 comdat align 2 {
  %2 = alloca ptr, align 8
  store ptr %0, ptr %2, align 8
  %3 = load ptr, ptr %2, align 8
  %4 = getelementptr inbounds nuw %class.QBasicMutex, ptr %3, i32 0, i32 0
  call void @_ZN19QBasicAtomicPointerI13QMutexPrivateEC2EPS0_(ptr noundef align 8 dereferenceable_or_null(8) %4, ptr noundef null) #19
  ret void
}

; Function Attrs: mustprogress null_pointer_is_valid sspstrong uwtable
define linkonce_odr void @_ZN6QMutexC2Ev(ptr noundef align 8 dereferenceable_or_null(8) %0) unnamed_addr #0 comdat align 2 {
  %2 = alloca ptr, align 8
  store ptr %0, ptr %2, align 8
  %3 = load ptr, ptr %2, align 8
  call void @_ZN11QBasicMutexC2Ev(ptr noundef align 8 dereferenceable_or_null(8) %3)
  ret void
}

; Function Attrs: mustprogress null_pointer_is_valid sspstrong uwtable
define void @_ZN10GLibPollerC2EP13_GMainContext(ptr noundef align 8 dereferenceable_or_null(64) %0, ptr noundef %1) unnamed_addr #0 align 2 personality ptr @__gxx_personality_v0 {
  %3 = alloca ptr, align 8
  %4 = alloca ptr, align 8
  %5 = alloca ptr, align 8
  %6 = alloca i32, align 4
  %7 = alloca i64, align 8
  %8 = alloca i64, align 8
  %9 = alloca ptr, align 8
  %10 = alloca ptr, align 8
  store ptr %0, ptr %3, align 8
  store ptr %1, ptr %4, align 8
  %11 = load ptr, ptr %3, align 8
  call void @_ZN7QThreadC2EP7QObject(ptr noundef align 8 dereferenceable_or_null(16) %11, ptr noundef null)
  store ptr getelementptr inbounds inrange(-16, 104) ({ [15 x ptr] }, ptr @_ZTV10GLibPoller, i32 0, i32 0, i32 2), ptr %11, align 8
  %12 = getelementptr inbounds nuw %class.GLibPoller, ptr %11, i32 0, i32 1
  call void @llvm.memset.p0.i64(ptr align 8 %12, i8 0, i64 8, i1 false)
  invoke void @_ZN6QMutexC2Ev(ptr noundef align 8 dereferenceable_or_null(8) %12)
          to label %13 unwind label %26

13:                                               ; preds = %2
  %14 = getelementptr inbounds nuw %class.GLibPoller, ptr %11, i32 0, i32 2
  invoke void @_ZN14QWaitConditionC1Ev(ptr noundef align 8 dereferenceable_or_null(8) %14)
          to label %15 unwind label %30

15:                                               ; preds = %13
  %16 = getelementptr inbounds nuw %class.GLibPoller, ptr %11, i32 0, i32 3
  %17 = load ptr, ptr %4, align 8
  store ptr %17, ptr %16, align 8
  %18 = getelementptr inbounds nuw %class.GLibPoller, ptr %11, i32 0, i32 4
  store i32 0, ptr %18, align 8
  %19 = getelementptr inbounds nuw %class.GLibPoller, ptr %11, i32 0, i32 5
  call void @llvm.lifetime.start.p0(i64 8, ptr %7) #19
  store i64 1, ptr %7, align 8
  call void @llvm.lifetime.start.p0(i64 8, ptr %8) #19
  store i64 8, ptr %8, align 8
  call void @llvm.lifetime.start.p0(i64 8, ptr %9) #19
  %20 = load i64, ptr %8, align 8
  %21 = icmp eq i64 %20, 1
  br i1 %21, label %22, label %38

22:                                               ; preds = %15
  %23 = load i64, ptr %7, align 8
  %24 = invoke noalias ptr @g_malloc(i64 noundef %23) #20
          to label %25 unwind label %34

25:                                               ; preds = %22
  store ptr %24, ptr %9, align 8
  br label %61

26:                                               ; preds = %2
  %27 = landingpad { ptr, i32 }
          cleanup
  %28 = extractvalue { ptr, i32 } %27, 0
  store ptr %28, ptr %5, align 8
  %29 = extractvalue { ptr, i32 } %27, 1
  store i32 %29, ptr %6, align 4
  br label %76

30:                                               ; preds = %13
  %31 = landingpad { ptr, i32 }
          cleanup
  %32 = extractvalue { ptr, i32 } %31, 0
  store ptr %32, ptr %5, align 8
  %33 = extractvalue { ptr, i32 } %31, 1
  store i32 %33, ptr %6, align 4
  br label %75

34:                                               ; preds = %55, %49, %22
  %35 = landingpad { ptr, i32 }
          cleanup
  %36 = extractvalue { ptr, i32 } %35, 0
  store ptr %36, ptr %5, align 8
  %37 = extractvalue { ptr, i32 } %35, 1
  store i32 %37, ptr %6, align 4
  call void @llvm.lifetime.end.p0(i64 8, ptr %9) #19
  call void @llvm.lifetime.end.p0(i64 8, ptr %8) #19
  call void @llvm.lifetime.end.p0(i64 8, ptr %7) #19
  br label %74

38:                                               ; preds = %15
  %39 = load i64, ptr %7, align 8
  %40 = call i1 @llvm.is.constant.i64(i64 %39)
  br i1 %40, label %41, label %55

41:                                               ; preds = %38
  %42 = load i64, ptr %8, align 8
  %43 = icmp eq i64 %42, 0
  br i1 %43, label %49, label %44

44:                                               ; preds = %41
  %45 = load i64, ptr %7, align 8
  %46 = load i64, ptr %8, align 8
  %47 = udiv i64 -1, %46
  %48 = icmp ule i64 %45, %47
  br i1 %48, label %49, label %55

49:                                               ; preds = %44, %41
  %50 = load i64, ptr %7, align 8
  %51 = load i64, ptr %8, align 8
  %52 = mul i64 %50, %51
  %53 = invoke noalias ptr @g_malloc(i64 noundef %52) #20
          to label %54 unwind label %34

54:                                               ; preds = %49
  store ptr %53, ptr %9, align 8
  br label %60

55:                                               ; preds = %44, %38
  %56 = load i64, ptr %7, align 8
  %57 = load i64, ptr %8, align 8
  %58 = invoke noalias ptr @g_malloc_n(i64 noundef %56, i64 noundef %57) #21
          to label %59 unwind label %34

59:                                               ; preds = %55
  store ptr %58, ptr %9, align 8
  br label %60

60:                                               ; preds = %59, %54
  br label %61

61:                                               ; preds = %60, %25
  %62 = load ptr, ptr %9, align 8
  store ptr %62, ptr %10, align 8
  call void @llvm.lifetime.end.p0(i64 8, ptr %9) #19
  call void @llvm.lifetime.end.p0(i64 8, ptr %8) #19
  call void @llvm.lifetime.end.p0(i64 8, ptr %7) #19
  %63 = load ptr, ptr %10, align 8
  store ptr %63, ptr %19, align 8
  %64 = getelementptr inbounds nuw %class.GLibPoller, ptr %11, i32 0, i32 6
  store i32 1, ptr %64, align 8
  %65 = getelementptr inbounds nuw %class.GLibPoller, ptr %11, i32 0, i32 7
  store i32 0, ptr %65, align 4
  %66 = getelementptr inbounds nuw %class.GLibPoller, ptr %11, i32 0, i32 3
  %67 = load ptr, ptr %66, align 8
  %68 = invoke ptr @g_main_context_ref(ptr noundef %67)
          to label %69 unwind label %70

69:                                               ; preds = %61
  ret void

70:                                               ; preds = %61
  %71 = landingpad { ptr, i32 }
          cleanup
  %72 = extractvalue { ptr, i32 } %71, 0
  store ptr %72, ptr %5, align 8
  %73 = extractvalue { ptr, i32 } %71, 1
  store i32 %73, ptr %6, align 4
  br label %74

74:                                               ; preds = %70, %34
  call void @_ZN14QWaitConditionD1Ev(ptr noundef align 8 dereferenceable_or_null(8) %14) #19
  br label %75

75:                                               ; preds = %74, %30
  call void @_ZN6QMutexD2Ev(ptr noundef align 8 dereferenceable_or_null(8) %12) #19
  br label %76

76:                                               ; preds = %75, %26
  call void @_ZN7QThreadD2Ev(ptr noundef align 8 dereferenceable_or_null(16) %11) #19
  br label %77

77:                                               ; preds = %76
  %78 = load ptr, ptr %5, align 8
  %79 = load i32, ptr %6, align 4
  %80 = insertvalue { ptr, i32 } poison, ptr %78, 0
  %81 = insertvalue { ptr, i32 } %80, i32 %79, 1
  resume { ptr, i32 } %81
}