; Function Attrs: mustprogress null_pointer_is_valid sspstrong uwtable
define void @_ZN10GLibPollerC2EP13_GMainContext(ptr noundef align 8 dereferenceable_or_null(64) %0, ptr noundef %1) unnamed_addr #0 align 2 personality ptr @__gxx_personality_v0 {
  tail call void @_ZN7QThreadC2EP7QObject(ptr noundef align 8 dereferenceable_or_null(16) %0, ptr noundef null)
  store ptr getelementptr inbounds nuw inrange(-16, 104) (i8, ptr @_ZTV10GLibPoller, i64 16), ptr %0, align 8
  %3 = getelementptr inbounds nuw i8, ptr %0, i64 16
  store ptr null, ptr %3, align 8
  %4 = getelementptr inbounds nuw i8, ptr %0, i64 24
  invoke void @_ZN14QWaitConditionC1Ev(ptr noundef nonnull align 8 dereferenceable_or_null(8) %4)
          to label %5 unwind label %9

5:                                                ; preds = %2
  %6 = getelementptr inbounds nuw i8, ptr %0, i64 32
  store ptr %1, ptr %6, align 8
  %7 = getelementptr inbounds nuw i8, ptr %0, i64 40
  store i32 0, ptr %7, align 8
  %8 = invoke noalias dereferenceable_or_null(8) ptr @g_malloc(i64 noundef 8) #13
          to label %13 unwind label %11

9:                                                ; preds = %2
  %10 = landingpad { ptr, i32 }
          cleanup
  br label %23

11:                                               ; preds = %5
  %12 = landingpad { ptr, i32 }
          cleanup
  br label %22

13:                                               ; preds = %5
  %14 = getelementptr inbounds nuw i8, ptr %0, i64 48
  store ptr %8, ptr %14, align 8
  %15 = getelementptr inbounds nuw i8, ptr %0, i64 56
  store i32 1, ptr %15, align 8
  %16 = getelementptr inbounds nuw i8, ptr %0, i64 60
  store i32 0, ptr %16, align 4
  %17 = load ptr, ptr %6, align 8
  %18 = invoke ptr @g_main_context_ref(ptr noundef %17)
          to label %19 unwind label %20

19:                                               ; preds = %13
  ret void

20:                                               ; preds = %13
  %21 = landingpad { ptr, i32 }
          cleanup
  br label %22

22:                                               ; preds = %20, %11
  %.pn = phi { ptr, i32 } [ %21, %20 ], [ %12, %11 ]
  tail call void @_ZN14QWaitConditionD1Ev(ptr noundef nonnull align 8 dereferenceable_or_null(8) %4) #14
  br label %23

23:                                               ; preds = %22, %9
  %.pn.pn = phi { ptr, i32 } [ %.pn, %22 ], [ %10, %9 ]
  tail call void @_ZN6QMutexD2Ev(ptr noundef nonnull align 8 dereferenceable_or_null(8) %3) #14
  tail call void @_ZN7QThreadD2Ev(ptr noundef align 8 dereferenceable_or_null(16) %0) #14
  resume { ptr, i32 } %.pn.pn
}